target datalayout = "e-m:e-p270:32:32-p271:32:32-p272:64:64-i64:64-i128:128-f80:128-n8:16:32:64-S128"
target triple = "x86_64-pc-linux-gnu"

@_ZL14invariantChars = internal constant [4 x i32] [i32 -1025, i32 -27, i32 -2013265922, i32 -2013265922], align 16

; Function Attrs: mustprogress nounwind uwtable
define signext i8 @uprv_isInvariantUString_77(ptr noundef %0, i32 noundef %1) #0 {
  %3 = alloca i8, align 1
  %4 = alloca ptr, align 8
  %5 = alloca i32, align 4
  %6 = alloca i16, align 2
  %7 = alloca i32, align 4
  store ptr %0, ptr %4, align 8, !tbaa !8
  store i32 %1, ptr %5, align 4, !tbaa !10
  call void @llvm.lifetime.start.p0(i64 2, ptr %6) #7
  br label %8

8:                                                ; preds = %48, %2
  %9 = load i32, ptr %5, align 4, !tbaa !10
  %10 = icmp slt i32 %9, 0
  br i1 %10, label %11, label %20

11:                                               ; preds = %8
  %12 = load ptr, ptr %4, align 8, !tbaa !8
  %13 = getelementptr inbounds nuw i16, ptr %12, i32 1
  store ptr %13, ptr %4, align 8, !tbaa !8
  %14 = load i16, ptr %12, align 2, !tbaa !13
  store i16 %14, ptr %6, align 2, !tbaa !13
  %15 = load i16, ptr %6, align 2, !tbaa !13
  %16 = zext i16 %15 to i32
  %17 = icmp eq i32 %16, 0
  br i1 %17, label %18, label %19

18:                                               ; preds = %11
  br label %49

19:                                               ; preds = %11
  br label %30

20:                                               ; preds = %8
  %21 = load i32, ptr %5, align 4, !tbaa !10
  %22 = icmp eq i32 %21, 0
  br i1 %22, label %23, label %24

23:                                               ; preds = %20
  br label %49

24:                                               ; preds = %20
  %25 = load i32, ptr %5, align 4, !tbaa !10
  %26 = add nsw i32 %25, -1
  store i32 %26, ptr %5, align 4, !tbaa !10
  %27 = load ptr, ptr %4, align 8, !tbaa !8
  %28 = getelementptr inbounds nuw i16, ptr %27, i32 1
  store ptr %28, ptr %4, align 8, !tbaa !8
  %29 = load i16, ptr %27, align 2, !tbaa !13
  store i16 %29, ptr %6, align 2, !tbaa !13
  br label %30

30:                                               ; preds = %24, %19
  %31 = load i16, ptr %6, align 2, !tbaa !13
  %32 = zext i16 %31 to i32
  %33 = icmp sle i32 %32, 127
  br i1 %33, label %34, label %47

34:                                               ; preds = %30
  %35 = load i16, ptr %6, align 2, !tbaa !13
  %36 = zext i16 %35 to i32
  %37 = ashr i32 %36, 5
  %38 = sext i32 %37 to i64
  %39 = getelementptr inbounds [4 x i32], ptr @_ZL14invariantChars, i64 0, i64 %38
  %40 = load i32, ptr %39, align 4, !tbaa !10
  %41 = load i16, ptr %6, align 2, !tbaa !13
  %42 = zext i16 %41 to i32
  %43 = and i32 %42, 31
  %44 = shl i32 1, %43
  %45 = and i32 %40, %44
  %46 = icmp ne i32 %45, 0
  br i1 %46, label %48, label %47

47:                                               ; preds = %34, %30
  store i8 0, ptr %3, align 1
  store i32 1, ptr %7, align 4
  br label %50

48:                                               ; preds = %34
  br label %8, !llvm.loop !19

49:                                               ; preds = %23, %18
  store i8 1, ptr %3, align 1
  store i32 1, ptr %7, align 4
  br label %50

50:                                               ; preds = %49, %47
  call void @llvm.lifetime.end.p0(i64 2, ptr %6) #7
  %51 = load i8, ptr %3, align 1
  ret i8 %51
}