; Function Attrs: mustprogress nofree norecurse nosync nounwind willreturn memory(argmem: read) uwtable
define signext range(i8 0, 2) i8 @uprv_isInvariantUString_77(ptr noundef readonly captures(none) %0, i32 noundef %1) local_unnamed_addr #1 {
  br label %3

3:                                                ; preds = %15, %2
  %.010 = phi ptr [ %0, %2 ], [ %.111, %15 ]
  %.09 = phi i32 [ %1, %2 ], [ %.1, %15 ]
  %4 = icmp slt i32 %.09, 0
  br i1 %4, label %5, label %8

5:                                                ; preds = %3
  %6 = load i16, ptr %.010, align 2, !tbaa !6
  %7 = icmp eq i16 %6, 0
  br i1 %7, label %24, label %13

8:                                                ; preds = %3
  %9 = icmp eq i32 %.09, 0
  br i1 %9, label %24, label %10

10:                                               ; preds = %8
  %11 = add nsw i32 %.09, -1
  %12 = load i16, ptr %.010, align 2, !tbaa !6
  br label %13

13:                                               ; preds = %5, %10
  %.1 = phi i32 [ %.09, %5 ], [ %11, %10 ]
  %.0 = phi i16 [ %6, %5 ], [ %12, %10 ]
  %14 = icmp ult i16 %.0, 128
  br i1 %14, label %15, label %24

15:                                               ; preds = %13
  %16 = zext nneg i16 %.0 to i32
  %.111 = getelementptr inbounds nuw i8, ptr %.010, i64 2
  %17 = lshr i32 %16, 5
  %18 = zext nneg i32 %17 to i64
  %19 = getelementptr inbounds nuw [4 x i32], ptr @_ZL14invariantChars, i64 0, i64 %18
  %20 = load i32, ptr %19, align 4, !tbaa !10
  %21 = and i32 %16, 31
  %22 = shl nuw i32 1, %21
  %23 = and i32 %20, %22
  %.not = icmp eq i32 %23, 0
  br i1 %.not, label %24, label %3, !llvm.loop !14

24:                                               ; preds = %5, %8, %13, %15
  %.012 = phi i8 [ 0, %15 ], [ 0, %13 ], [ 1, %8 ], [ 1, %5 ]
  ret i8 %.012
}